; Function Attrs: mustprogress nounwind uwtable
define dso_local { i64, i64 } @_ZNK4llvm12CallLowering22getAttributesForArgIdxERKNS_8CallBaseEj(ptr nocapture noundef nonnull readnone align 8 dereferenceable(16) %0, ptr noundef nonnull align 8 dereferenceable(88) %1, i32 noundef %2) local_unnamed_addr #1 align 2 {
  %4 = alloca %"struct.llvm::ISD::ArgFlagsTy", align 8
  %5 = alloca i32, align 4
  %6 = alloca %"class.std::function", align 8
  store i32 %2, ptr %5, align 4
  %7 = getelementptr inbounds nuw i8, ptr %6, i64 16
  %8 = getelementptr inbounds nuw i8, ptr %6, i64 24
  call void @llvm.memset.p0.i64(ptr noundef nonnull align 8 dereferenceable(16) %4, i8 0, i64 16, i1 false)
  store ptr %1, ptr %6, align 8
  %.sroa.2.0..sroa_idx = getelementptr inbounds i8, ptr %6, i64 8
  store ptr %5, ptr %.sroa.2.0..sroa_idx, align 8
  store ptr @"_ZNSt17_Function_handlerIFbN4llvm9Attribute8AttrKindEEZNKS0_12CallLowering22getAttributesForArgIdxERKNS0_8CallBaseEjE3$_0E9_M_invokeERKSt9_Any_dataOS2_", ptr %8, align 8
  store ptr @"_ZNSt17_Function_handlerIFbN4llvm9Attribute8AttrKindEEZNKS0_12CallLowering22getAttributesForArgIdxERKNS0_8CallBaseEjE3$_0E10_M_managerERSt9_Any_dataRKSA_St18_Manager_operation", ptr %7, align 8
  call fastcc void @_ZL19addFlagsUsingAttrFnRN4llvm3ISD10ArgFlagsTyERKSt8functionIFbNS_9Attribute8AttrKindEEE(ptr noundef nonnull align 4 dereferenceable(16) %4, ptr noundef nonnull align 8 dereferenceable(32) %6)
  %9 = load ptr, ptr %7, align 8
  %.not.i.i = icmp eq ptr %9, null
  br i1 %.not.i.i, label %_ZNSt8functionIFbN4llvm9Attribute8AttrKindEEED2Ev.exit, label %10

10:                                               ; preds = %3
  %11 = call noundef zeroext i1 %9(ptr noundef nonnull align 8 dereferenceable(16) %6, ptr noundef nonnull align 8 dereferenceable(16) %6, i32 noundef 3) #18
  br label %_ZNSt8functionIFbN4llvm9Attribute8AttrKindEEED2Ev.exit

_ZNSt8functionIFbN4llvm9Attribute8AttrKindEEED2Ev.exit: ; preds = %3, %10
  %12 = getelementptr inbounds nuw i8, ptr %4, i64 8
  %.fca.0.load = load i64, ptr %4, align 8
  %.fca.0.insert = insertvalue { i64, i64 } poison, i64 %.fca.0.load, 0
  %.fca.1.load = load i64, ptr %12, align 8
  %.fca.1.insert = insertvalue { i64, i64 } %.fca.0.insert, i64 %.fca.1.load, 1
  ret { i64, i64 } %.fca.1.insert
}